; Function Attrs: mustprogress nounwind uwtable
define hidden void @_ZN6G1NUMAD2Ev(ptr nocapture noundef nonnull readonly align 8 dereferenceable(56) %0) unnamed_addr #1 align 2 {
  %2 = getelementptr inbounds i8, ptr %0, i64 48
  %3 = load ptr, ptr %2, align 8
  %4 = icmp eq ptr %3, null
  br i1 %4, label %6, label %5

5:                                                ; preds = %1
  tail call void @_ZN11G1NUMAStatsD1Ev(ptr noundef nonnull align 8 dereferenceable(32) %3) #12
  tail call void @_Z8FreeHeapPv(ptr noundef nonnull %3) #12
  br label %6

6:                                                ; preds = %5, %1
  %7 = load ptr, ptr %0, align 8
  tail call void @_Z8FreeHeapPv(ptr noundef %7) #12
  %8 = getelementptr inbounds i8, ptr %0, i64 16
  %9 = load ptr, ptr %8, align 8
  tail call void @_Z8FreeHeapPv(ptr noundef %9) #12
  ret void
}